target datalayout = "e-m:e-p270:32:32-p271:32:32-p272:64:64-i64:64-i128:128-f80:128-n8:16:32:64-S128"
target triple = "x86_64-pc-linux-gnu"

%struct.buf_mem_st = type { i64, ptr, i64, i64 }

@testctx = internal global ptr null, align 8
@testpropq = internal global ptr null, align 8
@.str.298 = private unnamed_addr constant [2 x i8] c"0\00", align 1
@.str.301 = private unnamed_addr constant [31 x i8] c"mem_ser = BIO_new(BIO_s_mem())\00", align 1
@.str.303 = private unnamed_addr constant [39 x i8] c"BIO_get_mem_ptr(mem_ser, &mem_buf) > 0\00", align 1
@.str.304 = private unnamed_addr constant [25 x i8] c"*encoded = mem_buf->data\00", align 1
@.str.305 = private unnamed_addr constant [31 x i8] c"*encoded_len = mem_buf->length\00", align 1
@.str.332 = private unnamed_addr constant [55 x i8] c"cipher = EVP_CIPHER_fetch(testctx, pcipher, testpropq)\00", align 1
@.str.333 = private unnamed_addr constant [88 x i8] c"PEM_write_bio_PrivateKey_traditional(mem_ser, pkey, cipher, upass, passlen, NULL, NULL)\00", align 1

; Function Attrs: nounwind uwtable
define internal i32 @encode_EVP_PKEY_legacy_PEM(ptr noundef %0, i32 noundef %1, ptr noundef %2, ptr noundef %3, ptr noundef %4, i32 noundef %5, ptr noundef %6, ptr noundef %7, ptr noundef %8, ptr noundef %9) #0 {
  %11 = alloca ptr, align 8
  %12 = alloca i32, align 4
  %13 = alloca ptr, align 8
  %14 = alloca ptr, align 8
  %15 = alloca ptr, align 8
  %16 = alloca i32, align 4
  %17 = alloca ptr, align 8
  %18 = alloca ptr, align 8
  %19 = alloca ptr, align 8
  %20 = alloca ptr, align 8
  %21 = alloca ptr, align 8
  %22 = alloca ptr, align 8
  %23 = alloca ptr, align 8
  %24 = alloca ptr, align 8
  %25 = alloca ptr, align 8
  %26 = alloca i64, align 8
  %27 = alloca i32, align 4
  store ptr %0, ptr %11, align 8, !tbaa !4
  store i32 %1, ptr %12, align 4, !tbaa !9
  store ptr %2, ptr %13, align 8, !tbaa !31
  store ptr %3, ptr %14, align 8, !tbaa !32
  store ptr %4, ptr %15, align 8, !tbaa !31
  store i32 %5, ptr %16, align 4, !tbaa !9
  store ptr %6, ptr %17, align 8, !tbaa !4
  store ptr %7, ptr %18, align 8, !tbaa !4
  store ptr %8, ptr %19, align 8, !tbaa !4
  store ptr %9, ptr %20, align 8, !tbaa !4
  call void @llvm.lifetime.start.p0(i64 8, ptr %21) #7
  %28 = load ptr, ptr %15, align 8, !tbaa !31
  store ptr %28, ptr %21, align 8, !tbaa !23
  call void @llvm.lifetime.start.p0(i64 8, ptr %22) #7
  store ptr null, ptr %22, align 8, !tbaa !63
  call void @llvm.lifetime.start.p0(i64 8, ptr %23) #7
  store ptr null, ptr %23, align 8, !tbaa !36
  call void @llvm.lifetime.start.p0(i64 8, ptr %24) #7
  store ptr null, ptr %24, align 8, !tbaa !38
  call void @llvm.lifetime.start.p0(i64 8, ptr %25) #7
  %29 = load ptr, ptr %19, align 8, !tbaa !4
  store ptr %29, ptr %25, align 8, !tbaa !4
  call void @llvm.lifetime.start.p0(i64 8, ptr %26) #7
  store i64 0, ptr %26, align 8, !tbaa !27
  call void @llvm.lifetime.start.p0(i64 4, ptr %27) #7
  store i32 0, ptr %27, align 4, !tbaa !9
  %30 = load ptr, ptr %20, align 8, !tbaa !4
  %31 = icmp ne ptr %30, null
  br i1 %31, label %32, label %48

32:                                               ; preds = %10
  %33 = load ptr, ptr %19, align 8, !tbaa !4
  %34 = icmp ne ptr %33, null
  br i1 %34, label %35, label %48

35:                                               ; preds = %32
  %36 = load ptr, ptr %19, align 8, !tbaa !4
  %37 = call i64 @strlen(ptr noundef %36) #8
  store i64 %37, ptr %26, align 8, !tbaa !27
  %38 = load ptr, ptr %11, align 8, !tbaa !4
  %39 = load i32, ptr %12, align 4, !tbaa !9
  %40 = load ptr, ptr @testctx, align 8, !tbaa !13
  %41 = load ptr, ptr %20, align 8, !tbaa !4
  %42 = load ptr, ptr @testpropq, align 8, !tbaa !4
  %43 = call ptr @EVP_CIPHER_fetch(ptr noundef %40, ptr noundef %41, ptr noundef %42)
  store ptr %43, ptr %22, align 8, !tbaa !63
  %44 = call i32 @test_ptr(ptr noundef %38, i32 noundef %39, ptr noundef @.str.332, ptr noundef %43)
  %45 = icmp ne i32 %44, 0
  br i1 %45, label %47, label %46

46:                                               ; preds = %35
  br label %104

47:                                               ; preds = %35
  br label %48

48:                                               ; preds = %47, %32, %10
  %49 = load ptr, ptr %11, align 8, !tbaa !4
  %50 = load i32, ptr %12, align 4, !tbaa !9
  %51 = call ptr @BIO_s_mem()
  %52 = call ptr @BIO_new(ptr noundef %51)
  store ptr %52, ptr %23, align 8, !tbaa !36
  %53 = call i32 @test_ptr(ptr noundef %49, i32 noundef %50, ptr noundef @.str.301, ptr noundef %52)
  %54 = icmp ne i32 %53, 0
  br i1 %54, label %55, label %98

55:                                               ; preds = %48
  %56 = load ptr, ptr %11, align 8, !tbaa !4
  %57 = load i32, ptr %12, align 4, !tbaa !9
  %58 = load ptr, ptr %23, align 8, !tbaa !36
  %59 = load ptr, ptr %21, align 8, !tbaa !23
  %60 = load ptr, ptr %22, align 8, !tbaa !63
  %61 = load ptr, ptr %25, align 8, !tbaa !4
  %62 = load i64, ptr %26, align 8, !tbaa !27
  %63 = trunc i64 %62 to i32
  %64 = call i32 @PEM_write_bio_PrivateKey_traditional(ptr noundef %58, ptr noundef %59, ptr noundef %60, ptr noundef %61, i32 noundef %63, ptr noundef null, ptr noundef null)
  %65 = icmp ne i32 %64, 0
  %66 = zext i1 %65 to i32
  %67 = call i32 @test_true(ptr noundef %56, i32 noundef %57, ptr noundef @.str.333, i32 noundef %66)
  %68 = icmp ne i32 %67, 0
  br i1 %68, label %69, label %98

69:                                               ; preds = %55
  %70 = load ptr, ptr %11, align 8, !tbaa !4
  %71 = load i32, ptr %12, align 4, !tbaa !9
  %72 = load ptr, ptr %23, align 8, !tbaa !36
  %73 = call i64 @BIO_ctrl(ptr noundef %72, i32 noundef 115, i64 noundef 0, ptr noundef %24)
  %74 = icmp sgt i64 %73, 0
  %75 = zext i1 %74 to i32
  %76 = icmp ne i32 %75, 0
  %77 = zext i1 %76 to i32
  %78 = call i32 @test_true(ptr noundef %70, i32 noundef %71, ptr noundef @.str.303, i32 noundef %77)
  %79 = icmp ne i32 %78, 0
  br i1 %79, label %80, label %98

80:                                               ; preds = %69
  %81 = load ptr, ptr %11, align 8, !tbaa !4
  %82 = load i32, ptr %12, align 4, !tbaa !9
  %83 = load ptr, ptr %24, align 8, !tbaa !38
  %84 = getelementptr inbounds nuw %struct.buf_mem_st, ptr %83, i32 0, i32 1
  %85 = load ptr, ptr %84, align 8, !tbaa !40
  %86 = load ptr, ptr %13, align 8, !tbaa !31
  store ptr %85, ptr %86, align 8, !tbaa !31
  %87 = call i32 @test_ptr(ptr noundef %81, i32 noundef %82, ptr noundef @.str.304, ptr noundef %85)
  %88 = icmp ne i32 %87, 0
  br i1 %88, label %89, label %98

89:                                               ; preds = %80
  %90 = load ptr, ptr %11, align 8, !tbaa !4
  %91 = load i32, ptr %12, align 4, !tbaa !9
  %92 = load ptr, ptr %24, align 8, !tbaa !38
  %93 = getelementptr inbounds nuw %struct.buf_mem_st, ptr %92, i32 0, i32 0
  %94 = load i64, ptr %93, align 8, !tbaa !42
  %95 = load ptr, ptr %14, align 8, !tbaa !32
  store i64 %94, ptr %95, align 8, !tbaa !27
  %96 = call i32 @test_long_gt(ptr noundef %90, i32 noundef %91, ptr noundef @.str.305, ptr noundef @.str.298, i64 noundef %94, i64 noundef 0)
  %97 = icmp ne i32 %96, 0
  br i1 %97, label %99, label %98

98:                                               ; preds = %89, %80, %69, %55, %48
  br label %104

99:                                               ; preds = %89
  %100 = load ptr, ptr %24, align 8, !tbaa !38
  %101 = getelementptr inbounds nuw %struct.buf_mem_st, ptr %100, i32 0, i32 1
  store ptr null, ptr %101, align 8, !tbaa !40
  %102 = load ptr, ptr %24, align 8, !tbaa !38
  %103 = getelementptr inbounds nuw %struct.buf_mem_st, ptr %102, i32 0, i32 0
  store i64 0, ptr %103, align 8, !tbaa !42
  store i32 1, ptr %27, align 4, !tbaa !9
  br label %104

104:                                              ; preds = %99, %98, %46
  %105 = load ptr, ptr %23, align 8, !tbaa !36
  %106 = call i32 @BIO_free(ptr noundef %105)
  %107 = load ptr, ptr %22, align 8, !tbaa !63
  call void @EVP_CIPHER_free(ptr noundef %107)
  %108 = load i32, ptr %27, align 4, !tbaa !9
  call void @llvm.lifetime.end.p0(i64 4, ptr %27) #7
  call void @llvm.lifetime.end.p0(i64 8, ptr %26) #7
  call void @llvm.lifetime.end.p0(i64 8, ptr %25) #7
  call void @llvm.lifetime.end.p0(i64 8, ptr %24) #7
  call void @llvm.lifetime.end.p0(i64 8, ptr %23) #7
  call void @llvm.lifetime.end.p0(i64 8, ptr %22) #7
  call void @llvm.lifetime.end.p0(i64 8, ptr %21) #7
  ret i32 %108
}