; Function Attrs: nounwind uwtable
define internal range(i32 0, 2) i32 @encode_EVP_PKEY_legacy_PEM(ptr noundef %0, i32 noundef %1, ptr noundef writeonly captures(none) %2, ptr noundef writeonly captures(none) %3, ptr noundef %4, i32 %5, ptr readnone captures(none) %6, ptr readnone captures(none) %7, ptr noundef %8, ptr noundef %9) #1 {
  %11 = alloca ptr, align 8
  call void @llvm.lifetime.start.p0(i64 8, ptr nonnull %11) #8
  store ptr null, ptr %11, align 8, !tbaa !29
  %12 = icmp ne ptr %9, null
  %13 = icmp ne ptr %8, null
  %or.cond = and i1 %13, %12
  br i1 %or.cond, label %14, label %19

14:                                               ; preds = %10
  %15 = tail call i64 @strlen(ptr noundef nonnull dereferenceable(1) %8) #9
  %16 = load ptr, ptr @testctx, align 8, !tbaa !10
  %17 = tail call ptr @EVP_CIPHER_fetch(ptr noundef %16, ptr noundef nonnull %9, ptr noundef null) #8
  %18 = tail call i32 @test_ptr(ptr noundef %0, i32 noundef %1, ptr noundef nonnull @.str.332, ptr noundef %17) #8
  %.not = icmp eq i32 %18, 0
  br i1 %.not, label %45, label %19

19:                                               ; preds = %14, %10
  %.030 = phi ptr [ %17, %14 ], [ null, %10 ]
  %.029 = phi i64 [ %15, %14 ], [ 0, %10 ]
  %20 = tail call ptr @BIO_s_mem() #8
  %21 = tail call ptr @BIO_new(ptr noundef %20) #8
  %22 = tail call i32 @test_ptr(ptr noundef %0, i32 noundef %1, ptr noundef nonnull @.str.301, ptr noundef %21) #8
  %.not34 = icmp eq i32 %22, 0
  br i1 %.not34, label %45, label %23

23:                                               ; preds = %19
  %24 = trunc i64 %.029 to i32
  %25 = tail call i32 @PEM_write_bio_PrivateKey_traditional(ptr noundef %21, ptr noundef %4, ptr noundef %.030, ptr noundef %8, i32 noundef %24, ptr noundef null, ptr noundef null) #8
  %26 = icmp ne i32 %25, 0
  %27 = zext i1 %26 to i32
  %28 = tail call i32 @test_true(ptr noundef %0, i32 noundef %1, ptr noundef nonnull @.str.333, i32 noundef %27) #8
  %.not35 = icmp eq i32 %28, 0
  br i1 %.not35, label %45, label %29

29:                                               ; preds = %23
  %30 = call i64 @BIO_ctrl(ptr noundef %21, i32 noundef 115, i64 noundef 0, ptr noundef nonnull %11) #8
  %31 = icmp sgt i64 %30, 0
  %32 = zext i1 %31 to i32
  %33 = call i32 @test_true(ptr noundef %0, i32 noundef %1, ptr noundef nonnull @.str.303, i32 noundef %32) #8
  %.not36 = icmp eq i32 %33, 0
  br i1 %.not36, label %45, label %34

34:                                               ; preds = %29
  %35 = load ptr, ptr %11, align 8, !tbaa !29
  %36 = getelementptr inbounds nuw i8, ptr %35, i64 8
  %37 = load ptr, ptr %36, align 8, !tbaa !31
  store ptr %37, ptr %2, align 8, !tbaa !23
  %38 = call i32 @test_ptr(ptr noundef %0, i32 noundef %1, ptr noundef nonnull @.str.304, ptr noundef %37) #8
  %.not37 = icmp eq i32 %38, 0
  br i1 %.not37, label %45, label %39

39:                                               ; preds = %34
  %40 = load ptr, ptr %11, align 8, !tbaa !29
  %41 = load i64, ptr %40, align 8, !tbaa !34
  store i64 %41, ptr %3, align 8, !tbaa !24
  %42 = call i32 @test_long_gt(ptr noundef %0, i32 noundef %1, ptr noundef nonnull @.str.305, ptr noundef nonnull @.str.298, i64 noundef %41, i64 noundef 0) #8
  %.not38 = icmp eq i32 %42, 0
  br i1 %.not38, label %45, label %43

43:                                               ; preds = %39
  %44 = load ptr, ptr %11, align 8, !tbaa !29
  call void @llvm.memset.p0.i64(ptr noundef nonnull align 8 dereferenceable(16) %44, i8 0, i64 16, i1 false)
  br label %45

45:                                               ; preds = %19, %23, %29, %34, %39, %14, %43
  %.031 = phi ptr [ %21, %43 ], [ %21, %39 ], [ %21, %34 ], [ %21, %29 ], [ %21, %23 ], [ %21, %19 ], [ null, %14 ]
  %.1 = phi ptr [ %.030, %43 ], [ %.030, %39 ], [ %.030, %34 ], [ %.030, %29 ], [ %.030, %23 ], [ %.030, %19 ], [ %17, %14 ]
  %.0 = phi i32 [ 1, %43 ], [ 0, %39 ], [ 0, %34 ], [ 0, %29 ], [ 0, %23 ], [ 0, %19 ], [ 0, %14 ]
  %46 = call i32 @BIO_free(ptr noundef %.031) #8
  call void @EVP_CIPHER_free(ptr noundef %.1) #8
  call void @llvm.lifetime.end.p0(i64 8, ptr nonnull %11) #8
  ret i32 %.0
}